target datalayout = "e-m:e-p270:32:32-p271:32:32-p272:64:64-i64:64-i128:128-f80:128-n8:16:32:64-S128"
target triple = "x86_64-pc-linux-gnu"

%struct.PS_HintsRec_ = type { ptr, i32, i32, i32, [2 x %struct.PS_DimensionRec_] }
%struct.PS_DimensionRec_ = type { %struct.PS_Hint_TableRec_, %struct.PS_Mask_TableRec_, %struct.PS_Mask_TableRec_ }
%struct.PS_Hint_TableRec_ = type { i32, i32, ptr }
%struct.PS_Mask_TableRec_ = type { i32, i32, ptr }
%struct.PS_Hinter_Module_Rec_ = type { %struct.FT_ModuleRec_, %struct.PS_HintsRec_, %struct.PSH_Globals_FuncsRec_, %struct.T1_Hints_FuncsRec_, %struct.T2_Hints_FuncsRec_ }
%struct.FT_ModuleRec_ = type { ptr, ptr, ptr }
%struct.PSH_Globals_FuncsRec_ = type { ptr, ptr, ptr }
%struct.T1_Hints_FuncsRec_ = type { ptr, ptr, ptr, ptr, ptr, ptr, ptr }
%struct.T2_Hints_FuncsRec_ = type { ptr, ptr, ptr, ptr, ptr, ptr, ptr }

; Function Attrs: nounwind uwtable
define internal void @t2_hints_funcs_init(ptr noundef %0) #0 {
  %2 = alloca ptr, align 8
  store ptr %0, ptr %2, align 8
  %3 = load ptr, ptr %2, align 8
  call void @llvm.memset.p0.i64(ptr align 8 %3, i8 0, i64 56, i1 false)
  %4 = load ptr, ptr %2, align 8
  %5 = getelementptr inbounds %struct.T2_Hints_FuncsRec_, ptr %4, i32 0, i32 1
  store ptr @t2_hints_open, ptr %5, align 8
  %6 = load ptr, ptr %2, align 8
  %7 = getelementptr inbounds %struct.T2_Hints_FuncsRec_, ptr %6, i32 0, i32 2
  store ptr @t2_hints_close, ptr %7, align 8
  %8 = load ptr, ptr %2, align 8
  %9 = getelementptr inbounds %struct.T2_Hints_FuncsRec_, ptr %8, i32 0, i32 3
  store ptr @t2_hints_stems, ptr %9, align 8
  %10 = load ptr, ptr %2, align 8
  %11 = getelementptr inbounds %struct.T2_Hints_FuncsRec_, ptr %10, i32 0, i32 4
  store ptr @ps_hints_t2mask, ptr %11, align 8
  %12 = load ptr, ptr %2, align 8
  %13 = getelementptr inbounds %struct.T2_Hints_FuncsRec_, ptr %12, i32 0, i32 5
  store ptr @ps_hints_t2counter, ptr %13, align 8
  %14 = load ptr, ptr %2, align 8
  %15 = getelementptr inbounds %struct.T2_Hints_FuncsRec_, ptr %14, i32 0, i32 6
  store ptr @t2_hints_apply, ptr %15, align 8
  ret void
}

; Function Attrs: nounwind uwtable
define internal void @t1_hints_funcs_init(ptr noundef %0) #0 {
  %2 = alloca ptr, align 8
  store ptr %0, ptr %2, align 8
  %3 = load ptr, ptr %2, align 8
  call void @llvm.memset.p0.i64(ptr align 8 %3, i8 0, i64 56, i1 false)
  %4 = load ptr, ptr %2, align 8
  %5 = getelementptr inbounds %struct.T1_Hints_FuncsRec_, ptr %4, i32 0, i32 1
  store ptr @t1_hints_open, ptr %5, align 8
  %6 = load ptr, ptr %2, align 8
  %7 = getelementptr inbounds %struct.T1_Hints_FuncsRec_, ptr %6, i32 0, i32 2
  store ptr @t1_hints_close, ptr %7, align 8
  %8 = load ptr, ptr %2, align 8
  %9 = getelementptr inbounds %struct.T1_Hints_FuncsRec_, ptr %8, i32 0, i32 3
  store ptr @t1_hints_stem, ptr %9, align 8
  %10 = load ptr, ptr %2, align 8
  %11 = getelementptr inbounds %struct.T1_Hints_FuncsRec_, ptr %10, i32 0, i32 4
  store ptr @ps_hints_t1stem3, ptr %11, align 8
  %12 = load ptr, ptr %2, align 8
  %13 = getelementptr inbounds %struct.T1_Hints_FuncsRec_, ptr %12, i32 0, i32 5
  store ptr @ps_hints_t1reset, ptr %13, align 8
  %14 = load ptr, ptr %2, align 8
  %15 = getelementptr inbounds %struct.T1_Hints_FuncsRec_, ptr %14, i32 0, i32 6
  store ptr @t1_hints_apply, ptr %15, align 8
  ret void
}

; Function Attrs: nounwind uwtable
define internal void @psh_globals_funcs_init(ptr noundef %0) #0 {
  %2 = alloca ptr, align 8
  store ptr %0, ptr %2, align 8
  %3 = load ptr, ptr %2, align 8
  %4 = getelementptr inbounds %struct.PSH_Globals_FuncsRec_, ptr %3, i32 0, i32 0
  store ptr @psh_globals_new, ptr %4, align 8
  %5 = load ptr, ptr %2, align 8
  %6 = getelementptr inbounds %struct.PSH_Globals_FuncsRec_, ptr %5, i32 0, i32 1
  store ptr @psh_globals_set_scale, ptr %6, align 8
  %7 = load ptr, ptr %2, align 8
  %8 = getelementptr inbounds %struct.PSH_Globals_FuncsRec_, ptr %7, i32 0, i32 2
  store ptr @psh_globals_destroy, ptr %8, align 8
  ret void
}

; Function Attrs: nounwind uwtable
define internal void @ps_hints_init(ptr noundef %0, ptr noundef %1) #0 {
  %3 = alloca ptr, align 8
  %4 = alloca ptr, align 8
  store ptr %0, ptr %3, align 8
  store ptr %1, ptr %4, align 8
  %5 = load ptr, ptr %3, align 8
  call void @llvm.memset.p0.i64(ptr align 8 %5, i8 0, i64 120, i1 false)
  %6 = load ptr, ptr %4, align 8
  %7 = load ptr, ptr %3, align 8
  %8 = getelementptr inbounds %struct.PS_HintsRec_, ptr %7, i32 0, i32 0
  store ptr %6, ptr %8, align 8
  ret void
}

; Function Attrs: nounwind uwtable
define internal i32 @ps_hinter_init(ptr noundef %0) #0 {
  %2 = alloca ptr, align 8
  %3 = alloca ptr, align 8
  %4 = alloca ptr, align 8
  %5 = alloca ptr, align 8
  store ptr %0, ptr %2, align 8
  %6 = load ptr, ptr %2, align 8
  store ptr %6, ptr %3, align 8
  %7 = load ptr, ptr %3, align 8
  %8 = getelementptr inbounds %struct.PS_Hinter_Module_Rec_, ptr %7, i32 0, i32 0
  %9 = getelementptr inbounds %struct.FT_ModuleRec_, ptr %8, i32 0, i32 2
  %10 = load ptr, ptr %9, align 8
  store ptr %10, ptr %4, align 8
  %11 = load ptr, ptr %3, align 8
  %12 = getelementptr inbounds %struct.PS_Hinter_Module_Rec_, ptr %11, i32 0, i32 1
  store ptr %12, ptr %5, align 8
  %13 = load ptr, ptr %3, align 8
  %14 = getelementptr inbounds %struct.PS_Hinter_Module_Rec_, ptr %13, i32 0, i32 1
  %15 = load ptr, ptr %4, align 8
  call void @ps_hints_init(ptr noundef %14, ptr noundef %15)
  %16 = load ptr, ptr %3, align 8
  %17 = getelementptr inbounds %struct.PS_Hinter_Module_Rec_, ptr %16, i32 0, i32 2
  call void @psh_globals_funcs_init(ptr noundef %17)
  %18 = load ptr, ptr %3, align 8
  %19 = getelementptr inbounds %struct.PS_Hinter_Module_Rec_, ptr %18, i32 0, i32 3
  call void @t1_hints_funcs_init(ptr noundef %19)
  %20 = load ptr, ptr %5, align 8
  %21 = load ptr, ptr %3, align 8
  %22 = getelementptr inbounds %struct.PS_Hinter_Module_Rec_, ptr %21, i32 0, i32 3
  %23 = getelementptr inbounds %struct.T1_Hints_FuncsRec_, ptr %22, i32 0, i32 0
  store ptr %20, ptr %23, align 8
  %24 = load ptr, ptr %3, align 8
  %25 = getelementptr inbounds %struct.PS_Hinter_Module_Rec_, ptr %24, i32 0, i32 4
  call void @t2_hints_funcs_init(ptr noundef %25)
  %26 = load ptr, ptr %5, align 8
  %27 = load ptr, ptr %3, align 8
  %28 = getelementptr inbounds %struct.PS_Hinter_Module_Rec_, ptr %27, i32 0, i32 4
  %29 = getelementptr inbounds %struct.T2_Hints_FuncsRec_, ptr %28, i32 0, i32 0
  store ptr %26, ptr %29, align 8
  ret i32 0
}