; Function Attrs: mustprogress nofree norecurse nosync nounwind willreturn memory(argmem: readwrite) uwtable
define internal noundef i32 @ps_hinter_init(ptr noundef %0) #3 {
  %2 = getelementptr inbounds i8, ptr %0, i64 16
  %3 = load ptr, ptr %2, align 8
  %4 = getelementptr inbounds i8, ptr %0, i64 24
  %5 = getelementptr inbounds i8, ptr %0, i64 32
  tail call void @llvm.memset.p0.i64(ptr noundef nonnull align 8 dereferenceable(120) %5, i8 0, i64 112, i1 false)
  store ptr %3, ptr %4, align 8
  %6 = getelementptr inbounds i8, ptr %0, i64 144
  store ptr @psh_globals_new, ptr %6, align 8
  %7 = getelementptr inbounds i8, ptr %0, i64 152
  store ptr @psh_globals_set_scale, ptr %7, align 8
  %8 = getelementptr inbounds i8, ptr %0, i64 160
  store ptr @psh_globals_destroy, ptr %8, align 8
  %9 = getelementptr inbounds i8, ptr %0, i64 168
  %10 = getelementptr inbounds i8, ptr %0, i64 176
  store ptr @t1_hints_open, ptr %10, align 8
  %11 = getelementptr inbounds i8, ptr %0, i64 184
  store ptr @t1_hints_close, ptr %11, align 8
  %12 = getelementptr inbounds i8, ptr %0, i64 192
  store ptr @t1_hints_stem, ptr %12, align 8
  %13 = getelementptr inbounds i8, ptr %0, i64 200
  store ptr @ps_hints_t1stem3, ptr %13, align 8
  %14 = getelementptr inbounds i8, ptr %0, i64 208
  store ptr @ps_hints_t1reset, ptr %14, align 8
  %15 = getelementptr inbounds i8, ptr %0, i64 216
  store ptr @t1_hints_apply, ptr %15, align 8
  store ptr %4, ptr %9, align 8
  %16 = getelementptr inbounds i8, ptr %0, i64 224
  %17 = getelementptr inbounds i8, ptr %0, i64 232
  store ptr @t2_hints_open, ptr %17, align 8
  %18 = getelementptr inbounds i8, ptr %0, i64 240
  store ptr @t2_hints_close, ptr %18, align 8
  %19 = getelementptr inbounds i8, ptr %0, i64 248
  store ptr @t2_hints_stems, ptr %19, align 8
  %20 = getelementptr inbounds i8, ptr %0, i64 256
  store ptr @ps_hints_t2mask, ptr %20, align 8
  %21 = getelementptr inbounds i8, ptr %0, i64 264
  store ptr @ps_hints_t2counter, ptr %21, align 8
  %22 = getelementptr inbounds i8, ptr %0, i64 272
  store ptr @t2_hints_apply, ptr %22, align 8
  store ptr %4, ptr %16, align 8
  ret i32 0
}